; Function Attrs: nofree norecurse nosync nounwind memory(argmem: readwrite) uwtable
define internal void @put_pixels16_xy2_8_c(ptr noundef writeonly captures(none) %0, ptr noundef readonly captures(none) %1, i64 noundef %2, i32 noundef %3) #1 {
  %5 = icmp sgt i32 %3, 0
  %6 = add nsw i32 %3, 1
  %7 = sext i32 %6 to i64
  %8 = mul nsw i64 %2, %7
  %9 = sub nsw i64 4, %8
  %10 = sext i32 %3 to i64
  %11 = mul nsw i64 %2, %10
  %12 = sub nsw i64 4, %11
  br i1 %5, label %.lr.ph.us.i, label %put_pixels8_xy2_8_c.exit21

.lr.ph.us.i:                                      ; preds = %4, %._crit_edge.us.i
  %.066.us.i = phi ptr [ %63, %._crit_edge.us.i ], [ %0, %4 ]
  %.04865.us.i = phi ptr [ %62, %._crit_edge.us.i ], [ %1, %4 ]
  %13 = phi i1 [ false, %._crit_edge.us.i ], [ true, %4 ]
  %14 = load i32, ptr %.04865.us.i, align 1, !tbaa !8
  %15 = getelementptr inbounds nuw i8, ptr %.04865.us.i, i64 1
  %16 = load i32, ptr %15, align 1, !tbaa !8
  %17 = and i32 %14, 50529027
  %18 = and i32 %16, 50529027
  %19 = add nuw nsw i32 %17, 33686018
  %20 = add nuw nsw i32 %19, %18
  %21 = lshr i32 %14, 2
  %22 = and i32 %21, 1061109567
  %23 = lshr i32 %16, 2
  %24 = and i32 %23, 1061109567
  %narrow.us.i = add nuw nsw i32 %24, %22
  %.14957.us.i = getelementptr inbounds i8, ptr %.04865.us.i, i64 %2
  br label %25

25:                                               ; preds = %25, %.lr.ph.us.i
  %.14962.us.i = phi ptr [ %.14957.us.i, %.lr.ph.us.i ], [ %.149.us.i, %25 ]
  %.161.us.i = phi ptr [ %.066.us.i, %.lr.ph.us.i ], [ %59, %25 ]
  %.05160.us.i = phi i32 [ 0, %.lr.ph.us.i ], [ %60, %25 ]
  %.05259.us.i = phi i32 [ %narrow.us.i, %.lr.ph.us.i ], [ %narrow56.us.i, %25 ]
  %.05358.us.i = phi i32 [ %20, %.lr.ph.us.i ], [ %49, %25 ]
  %26 = load i32, ptr %.14962.us.i, align 1, !tbaa !8
  %27 = getelementptr inbounds nuw i8, ptr %.14962.us.i, i64 1
  %28 = load i32, ptr %27, align 1, !tbaa !8
  %29 = and i32 %26, 50529027
  %30 = and i32 %28, 50529027
  %31 = add nuw nsw i32 %30, %29
  %32 = lshr i32 %26, 2
  %33 = and i32 %32, 1061109567
  %34 = lshr i32 %28, 2
  %35 = and i32 %34, 1061109567
  %narrow55.us.i = add nuw nsw i32 %35, %33
  %36 = add nuw i32 %narrow55.us.i, %.05259.us.i
  %37 = add nuw nsw i32 %31, %.05358.us.i
  %38 = lshr i32 %37, 2
  %39 = and i32 %38, 252645135
  %40 = add i32 %36, %39
  store i32 %40, ptr %.161.us.i, align 4, !tbaa !9
  %41 = getelementptr inbounds i8, ptr %.14962.us.i, i64 %2
  %42 = getelementptr inbounds i8, ptr %.161.us.i, i64 %2
  %43 = load i32, ptr %41, align 1, !tbaa !8
  %44 = getelementptr inbounds nuw i8, ptr %41, i64 1
  %45 = load i32, ptr %44, align 1, !tbaa !8
  %46 = and i32 %43, 50529027
  %47 = and i32 %45, 50529027
  %48 = add nuw nsw i32 %46, 33686018
  %49 = add nuw nsw i32 %48, %47
  %50 = lshr i32 %43, 2
  %51 = and i32 %50, 1061109567
  %52 = lshr i32 %45, 2
  %53 = and i32 %52, 1061109567
  %narrow56.us.i = add nuw nsw i32 %53, %51
  %54 = add nuw i32 %narrow56.us.i, %narrow55.us.i
  %55 = add nuw nsw i32 %49, %31
  %56 = lshr i32 %55, 2
  %57 = and i32 %56, 117901063
  %58 = add i32 %54, %57
  store i32 %58, ptr %42, align 4, !tbaa !9
  %59 = getelementptr inbounds i8, ptr %42, i64 %2
  %60 = add nuw nsw i32 %.05160.us.i, 2
  %.149.us.i = getelementptr inbounds i8, ptr %41, i64 %2
  %61 = icmp slt i32 %60, %3
  br i1 %61, label %25, label %._crit_edge.us.i, !llvm.loop !14

._crit_edge.us.i:                                 ; preds = %25
  %62 = getelementptr inbounds i8, ptr %.149.us.i, i64 %9
  %63 = getelementptr inbounds i8, ptr %59, i64 %12
  br i1 %13, label %.lr.ph.us.i, label %put_pixels8_xy2_8_c.exit, !llvm.loop !15

put_pixels8_xy2_8_c.exit:                         ; preds = %._crit_edge.us.i
  %64 = getelementptr inbounds nuw i8, ptr %0, i64 8
  %65 = getelementptr inbounds nuw i8, ptr %1, i64 8
  br label %.lr.ph.us.i7

.lr.ph.us.i7:                                     ; preds = %put_pixels8_xy2_8_c.exit, %._crit_edge.us.i20
  %.066.us.i8 = phi ptr [ %116, %._crit_edge.us.i20 ], [ %64, %put_pixels8_xy2_8_c.exit ]
  %.04865.us.i9 = phi ptr [ %115, %._crit_edge.us.i20 ], [ %65, %put_pixels8_xy2_8_c.exit ]
  %66 = phi i1 [ false, %._crit_edge.us.i20 ], [ true, %put_pixels8_xy2_8_c.exit ]
  %67 = load i32, ptr %.04865.us.i9, align 1, !tbaa !8
  %68 = getelementptr inbounds nuw i8, ptr %.04865.us.i9, i64 1
  %69 = load i32, ptr %68, align 1, !tbaa !8
  %70 = and i32 %67, 50529027
  %71 = and i32 %69, 50529027
  %72 = add nuw nsw i32 %70, 33686018
  %73 = add nuw nsw i32 %72, %71
  %74 = lshr i32 %67, 2
  %75 = and i32 %74, 1061109567
  %76 = lshr i32 %69, 2
  %77 = and i32 %76, 1061109567
  %narrow.us.i10 = add nuw nsw i32 %77, %75
  %.14957.us.i11 = getelementptr inbounds i8, ptr %.04865.us.i9, i64 %2
  br label %78

78:                                               ; preds = %78, %.lr.ph.us.i7
  %.14962.us.i12 = phi ptr [ %.14957.us.i11, %.lr.ph.us.i7 ], [ %.149.us.i19, %78 ]
  %.161.us.i13 = phi ptr [ %.066.us.i8, %.lr.ph.us.i7 ], [ %112, %78 ]
  %.05160.us.i14 = phi i32 [ 0, %.lr.ph.us.i7 ], [ %113, %78 ]
  %.05259.us.i15 = phi i32 [ %narrow.us.i10, %.lr.ph.us.i7 ], [ %narrow56.us.i18, %78 ]
  %.05358.us.i16 = phi i32 [ %73, %.lr.ph.us.i7 ], [ %102, %78 ]
  %79 = load i32, ptr %.14962.us.i12, align 1, !tbaa !8
  %80 = getelementptr inbounds nuw i8, ptr %.14962.us.i12, i64 1
  %81 = load i32, ptr %80, align 1, !tbaa !8
  %82 = and i32 %79, 50529027
  %83 = and i32 %81, 50529027
  %84 = add nuw nsw i32 %83, %82
  %85 = lshr i32 %79, 2
  %86 = and i32 %85, 1061109567
  %87 = lshr i32 %81, 2
  %88 = and i32 %87, 1061109567
  %narrow55.us.i17 = add nuw nsw i32 %88, %86
  %89 = add nuw i32 %narrow55.us.i17, %.05259.us.i15
  %90 = add nuw nsw i32 %84, %.05358.us.i16
  %91 = lshr i32 %90, 2
  %92 = and i32 %91, 252645135
  %93 = add i32 %89, %92
  store i32 %93, ptr %.161.us.i13, align 4, !tbaa !9
  %94 = getelementptr inbounds i8, ptr %.14962.us.i12, i64 %2
  %95 = getelementptr inbounds i8, ptr %.161.us.i13, i64 %2
  %96 = load i32, ptr %94, align 1, !tbaa !8
  %97 = getelementptr inbounds nuw i8, ptr %94, i64 1
  %98 = load i32, ptr %97, align 1, !tbaa !8
  %99 = and i32 %96, 50529027
  %100 = and i32 %98, 50529027
  %101 = add nuw nsw i32 %99, 33686018
  %102 = add nuw nsw i32 %101, %100
  %103 = lshr i32 %96, 2
  %104 = and i32 %103, 1061109567
  %105 = lshr i32 %98, 2
  %106 = and i32 %105, 1061109567
  %narrow56.us.i18 = add nuw nsw i32 %106, %104
  %107 = add nuw i32 %narrow56.us.i18, %narrow55.us.i17
  %108 = add nuw nsw i32 %102, %84
  %109 = lshr i32 %108, 2
  %110 = and i32 %109, 117901063
  %111 = add i32 %107, %110
  store i32 %111, ptr %95, align 4, !tbaa !9
  %112 = getelementptr inbounds i8, ptr %95, i64 %2
  %113 = add nuw nsw i32 %.05160.us.i14, 2
  %.149.us.i19 = getelementptr inbounds i8, ptr %94, i64 %2
  %114 = icmp slt i32 %113, %3
  br i1 %114, label %78, label %._crit_edge.us.i20, !llvm.loop !14

._crit_edge.us.i20:                               ; preds = %78
  %115 = getelementptr inbounds i8, ptr %.149.us.i19, i64 %9
  %116 = getelementptr inbounds i8, ptr %112, i64 %12
  br i1 %66, label %.lr.ph.us.i7, label %put_pixels8_xy2_8_c.exit21, !llvm.loop !15

put_pixels8_xy2_8_c.exit21:                       ; preds = %._crit_edge.us.i20, %4
  ret void
}